; Function Attrs: mustprogress nounwind uwtable
define hidden noundef ptr @_ZN14LogDecorations9host_nameEv() local_unnamed_addr #1 align 2 {
  %1 = alloca [1024 x i8], align 16
  %2 = load volatile ptr, ptr @_ZN14LogDecorations10_host_nameE, align 8
  tail call void asm sideeffect "", "~{memory},~{dirflag},~{fpsr},~{flags}"() #7, !srcloc !6
  %3 = icmp eq ptr %2, null
  br i1 %3, label %4, label %10

4:                                                ; preds = %0
  %5 = call noundef zeroext i1 @_ZN2os13get_host_nameEPcm(ptr noundef nonnull %1, i64 noundef 1024) #7
  br i1 %5, label %6, label %10

6:                                                ; preds = %4
  %7 = call noundef ptr @_ZN2os16strdup_check_oomEPKc8MEMFLAGS(ptr noundef nonnull %1, i8 noundef zeroext 9) #7
  %8 = call noundef ptr asm sideeffect "lock cmpxchgq $1,($3)", "={ax},r,{ax},r,~{cc},~{memory},~{dirflag},~{fpsr},~{flags}"(ptr %7, ptr null, ptr nonnull @_ZN14LogDecorations10_host_nameE) #7, !srcloc !7
  %.not = icmp eq ptr %8, null
  br i1 %.not, label %10, label %9

9:                                                ; preds = %6
  call void @_ZN2os4freeEPv(ptr noundef %7) #7
  br label %10

10:                                               ; preds = %4, %9, %6, %0
  %.0 = phi ptr [ %8, %9 ], [ %7, %6 ], [ null, %4 ], [ %2, %0 ]
  ret ptr %.0
}